; Function Attrs: mustprogress nounwind uwtable
define dso_local void @LLVMSetCurrentDebugLocation(ptr noundef %0, ptr noundef readonly %1) local_unnamed_addr #0 {
  %3 = alloca i32, align 4
  %4 = alloca ptr, align 8
  %5 = alloca %"class.llvm::DebugLoc", align 8
  %.not = icmp eq ptr %1, null
  br i1 %.not, label %9, label %6

6:                                                ; preds = %2
  %7 = getelementptr inbounds nuw i8, ptr %1, i64 24
  %8 = load ptr, ptr %7, align 8
  br label %9

9:                                                ; preds = %2, %6
  %10 = phi ptr [ %8, %6 ], [ null, %2 ]
  call void @_ZN4llvm8DebugLocC1EPKNS_6MDNodeE(ptr noundef nonnull align 8 dereferenceable(8) %5, ptr noundef %10) #35
  %11 = load ptr, ptr %5, align 8
  call void @llvm.lifetime.start.p0(i64 4, ptr nonnull %3)
  call void @llvm.lifetime.start.p0(i64 8, ptr nonnull %4)
  store i32 0, ptr %3, align 4
  store ptr %11, ptr %4, align 8
  %.not.i.i = icmp eq ptr %11, null
  br i1 %.not.i.i, label %12, label %13

12:                                               ; preds = %9
  call void @_ZN4llvm8erase_ifINS_11SmallVectorISt4pairIjPNS_6MDNodeEELj2EEEZNS_13IRBuilderBase25AddOrRemoveMetadataToCopyEjS4_EUlRKS5_E_EEvRT_T0_(ptr noundef nonnull align 8 dereferenceable(128) %0, i32 0)
  br label %_ZN4llvm13IRBuilderBase23SetCurrentDebugLocationENS_8DebugLocE.exit

13:                                               ; preds = %9
  %14 = load ptr, ptr %0, align 8
  %15 = call noundef i64 @_ZNK4llvm15SmallVectorBaseIjE4sizeEv(ptr noundef nonnull align 8 dereferenceable(128) %0) #35
  %16 = getelementptr inbounds %"struct.std::pair", ptr %14, i64 %15
  %.not911.i.i = icmp eq i64 %15, 0
  br i1 %.not911.i.i, label %._crit_edge.i.i, label %.lr.ph.i.i

.lr.ph.i.i:                                       ; preds = %13, %21
  %.012.i.i = phi ptr [ %22, %21 ], [ %14, %13 ]
  %17 = load i32, ptr %.012.i.i, align 8
  %18 = icmp eq i32 %17, 0
  br i1 %18, label %19, label %21

19:                                               ; preds = %.lr.ph.i.i
  %20 = getelementptr inbounds nuw i8, ptr %.012.i.i, i64 8
  store ptr %11, ptr %20, align 8
  br label %_ZN4llvm13IRBuilderBase23SetCurrentDebugLocationENS_8DebugLocE.exit

21:                                               ; preds = %.lr.ph.i.i
  %22 = getelementptr inbounds nuw i8, ptr %.012.i.i, i64 16
  %.not9.i.i = icmp eq ptr %22, %16
  br i1 %.not9.i.i, label %._crit_edge.i.i, label %.lr.ph.i.i

._crit_edge.i.i:                                  ; preds = %21, %13
  %23 = call noundef nonnull align 8 dereferenceable(16) ptr @_ZN4llvm15SmallVectorImplISt4pairIjPNS_6MDNodeEEE12emplace_backIJRjRS3_EEERS4_DpOT_(ptr noundef nonnull align 8 dereferenceable(128) %0, ptr noundef nonnull align 4 dereferenceable(4) %3, ptr noundef nonnull align 8 dereferenceable(8) %4)
  br label %_ZN4llvm13IRBuilderBase23SetCurrentDebugLocationENS_8DebugLocE.exit

_ZN4llvm13IRBuilderBase23SetCurrentDebugLocationENS_8DebugLocE.exit: ; preds = %12, %19, %._crit_edge.i.i
  call void @llvm.lifetime.end.p0(i64 4, ptr nonnull %3)
  call void @llvm.lifetime.end.p0(i64 8, ptr nonnull %4)
  %24 = load ptr, ptr %5, align 8
  %.not.i.i.i.i = icmp eq ptr %24, null
  br i1 %.not.i.i.i.i, label %_ZN4llvm8DebugLocD2Ev.exit, label %25

25:                                               ; preds = %_ZN4llvm13IRBuilderBase23SetCurrentDebugLocationENS_8DebugLocE.exit
  call void @_ZN4llvm16MetadataTracking7untrackEPvRNS_8MetadataE(ptr noundef nonnull align 8 dereferenceable(8) %5, ptr noundef nonnull align 4 dereferenceable(8) %24) #35
  br label %_ZN4llvm8DebugLocD2Ev.exit

_ZN4llvm8DebugLocD2Ev.exit:                       ; preds = %_ZN4llvm13IRBuilderBase23SetCurrentDebugLocationENS_8DebugLocE.exit, %25
  ret void
}